; Function Attrs: nounwind uwtable
define hidden ptr @xmlreader_write_property(ptr noundef %0, ptr noundef %1, ptr noundef %2, ptr noundef %3) #0 {
  %5 = getelementptr inbounds i8, ptr %0, i64 -8
  %6 = load ptr, ptr %5, align 8
  %.not = icmp eq ptr %6, null
  br i1 %.not, label %.critedge, label %7

7:                                                ; preds = %4
  %8 = tail call ptr @zend_hash_find(ptr noundef nonnull %6, ptr noundef %1) #11
  %.not22 = icmp eq ptr %8, null
  br i1 %.not22, label %.critedge, label %9

9:                                                ; preds = %7
  %10 = getelementptr inbounds i8, ptr %0, i64 16
  %11 = load ptr, ptr %10, align 8
  %12 = getelementptr inbounds i8, ptr %11, i64 8
  %13 = load ptr, ptr %12, align 8
  %14 = getelementptr inbounds i8, ptr %13, i64 24
  %15 = getelementptr inbounds i8, ptr %1, i64 24
  tail call void (ptr, ptr, ...) @zend_throw_error(ptr noundef null, ptr noundef nonnull @.str, ptr noundef nonnull %14, ptr noundef nonnull %15) #11
  br label %17

.critedge:                                        ; preds = %4, %7
  %16 = tail call ptr @zend_std_write_property(ptr noundef nonnull %0, ptr noundef %1, ptr noundef %2, ptr noundef %3) #11
  br label %17

17:                                               ; preds = %.critedge, %9
  %.019 = phi ptr [ %2, %9 ], [ %16, %.critedge ]
  ret ptr %.019
}